target datalayout = "e-m:e-p270:32:32-p271:32:32-p272:64:64-i64:64-i128:128-f80:128-n8:16:32:64-S128"
target triple = "x86_64-pc-linux-gnu"

%class.checked_buffer_t = type { i16, ptr, i32, %"class.std::vector" }
%"class.std::vector" = type { %"struct.std::_Vector_base" }
%"struct.std::_Vector_base" = type { %"struct.std::_Vector_base<unsigned char, std::allocator<unsigned char>>::_Vector_impl" }
%"struct.std::_Vector_base<unsigned char, std::allocator<unsigned char>>::_Vector_impl" = type { %"struct.std::_Vector_base<unsigned char, std::allocator<unsigned char>>::_Vector_impl_data" }
%"struct.std::_Vector_base<unsigned char, std::allocator<unsigned char>>::_Vector_impl_data" = type { ptr, ptr, ptr }

@_ZTI17LibRaw_exceptions = linkonce_odr constant { ptr, ptr } { ptr getelementptr inbounds (ptr, ptr @_ZTVN10__cxxabiv116__enum_type_infoE, i64 2), ptr @_ZTS17LibRaw_exceptions }, comdat, align 8

; Function Attrs: mustprogress uwtable
define void @_ZN16checked_buffer_t11checkoffsetEi(ptr noundef nonnull align 8 dereferenceable(48) %0, i32 noundef %1) #3 align 2 {
  %3 = alloca ptr, align 8
  %4 = alloca i32, align 4
  store ptr %0, ptr %3, align 8, !tbaa !176
  store i32 %1, ptr %4, align 4, !tbaa !12
  %5 = load ptr, ptr %3, align 8
  %6 = load i32, ptr %4, align 4, !tbaa !12
  %7 = getelementptr inbounds nuw %class.checked_buffer_t, ptr %5, i32 0, i32 2
  %8 = load i32, ptr %7, align 8, !tbaa !185
  %9 = icmp sge i32 %6, %8
  br i1 %9, label %13, label %10

10:                                               ; preds = %2
  %11 = load i32, ptr %4, align 4, !tbaa !12
  %12 = icmp slt i32 %11, 0
  br i1 %12, label %13, label %15

13:                                               ; preds = %10, %2
  %14 = call ptr @__cxa_allocate_exception(i64 4) #18
  store i32 4, ptr %14, align 16, !tbaa !43
  call void @__cxa_throw(ptr %14, ptr @_ZTI17LibRaw_exceptions, ptr null) #20
  unreachable

15:                                               ; preds = %10
  ret void
}

; Function Attrs: mustprogress uwtable
define noundef i32 @_ZN16checked_buffer_t5sget4Ei(ptr noundef nonnull align 8 dereferenceable(48) %0, i32 noundef %1) #3 align 2 {
  %3 = alloca ptr, align 8
  %4 = alloca i32, align 4
  store ptr %0, ptr %3, align 8, !tbaa !176
  store i32 %1, ptr %4, align 4, !tbaa !12
  %5 = load ptr, ptr %3, align 8
  %6 = load i32, ptr %4, align 4, !tbaa !12
  call void @_ZN16checked_buffer_t11checkoffsetEi(ptr noundef nonnull align 8 dereferenceable(48) %5, i32 noundef %6)
  %7 = load i32, ptr %4, align 4, !tbaa !12
  %8 = add nsw i32 %7, 4
  call void @_ZN16checked_buffer_t11checkoffsetEi(ptr noundef nonnull align 8 dereferenceable(48) %5, i32 noundef %8)
  %9 = getelementptr inbounds nuw %class.checked_buffer_t, ptr %5, i32 0, i32 0
  %10 = load i16, ptr %9, align 8, !tbaa !178
  %11 = getelementptr inbounds nuw %class.checked_buffer_t, ptr %5, i32 0, i32 1
  %12 = load ptr, ptr %11, align 8, !tbaa !184
  %13 = load i32, ptr %4, align 4, !tbaa !12
  %14 = sext i32 %13 to i64
  %15 = getelementptr inbounds i8, ptr %12, i64 %14
  %16 = call noundef i32 @_Z19libraw_sget4_staticsPh(i16 noundef signext %10, ptr noundef %15)
  ret i32 %16
}

; Function Attrs: mustprogress uwtable
define noundef zeroext i16 @_ZN16checked_buffer_t5sget2Ei(ptr noundef nonnull align 8 dereferenceable(48) %0, i32 noundef %1) #3 align 2 {
  %3 = alloca ptr, align 8
  %4 = alloca i32, align 4
  store ptr %0, ptr %3, align 8, !tbaa !176
  store i32 %1, ptr %4, align 4, !tbaa !12
  %5 = load ptr, ptr %3, align 8
  %6 = load i32, ptr %4, align 4, !tbaa !12
  call void @_ZN16checked_buffer_t11checkoffsetEi(ptr noundef nonnull align 8 dereferenceable(48) %5, i32 noundef %6)
  %7 = load i32, ptr %4, align 4, !tbaa !12
  %8 = add nsw i32 %7, 2
  call void @_ZN16checked_buffer_t11checkoffsetEi(ptr noundef nonnull align 8 dereferenceable(48) %5, i32 noundef %8)
  %9 = getelementptr inbounds nuw %class.checked_buffer_t, ptr %5, i32 0, i32 0
  %10 = load i16, ptr %9, align 8, !tbaa !178
  %11 = getelementptr inbounds nuw %class.checked_buffer_t, ptr %5, i32 0, i32 1
  %12 = load ptr, ptr %11, align 8, !tbaa !184
  %13 = load i32, ptr %4, align 4, !tbaa !12
  %14 = sext i32 %13 to i64
  %15 = getelementptr inbounds i8, ptr %12, i64 %14
  %16 = call noundef zeroext i16 @_Z19libraw_sget2_staticsPh(i16 noundef signext %10, ptr noundef %15)
  ret i16 %16
}

; Function Attrs: mustprogress uwtable
define noundef i32 @_ZN16checked_buffer_t9tiff_sgetEjPxPjS1_S0_S1_Pi(ptr noundef nonnull align 8 dereferenceable(48) %0, i32 noundef %1, ptr noundef %2, ptr noundef %3, ptr noundef %4, ptr noundef %5, ptr noundef %6, ptr noundef %7) #3 align 2 {
  %9 = alloca i32, align 4
  %10 = alloca ptr, align 8
  %11 = alloca i32, align 4
  %12 = alloca ptr, align 8
  %13 = alloca ptr, align 8
  %14 = alloca ptr, align 8
  %15 = alloca ptr, align 8
  %16 = alloca ptr, align 8
  %17 = alloca ptr, align 8
  %18 = alloca i32, align 4
  %19 = alloca i32, align 4
  store ptr %0, ptr %10, align 8, !tbaa !176
  store i32 %1, ptr %11, align 4, !tbaa !12
  store ptr %2, ptr %12, align 8, !tbaa !149
  store ptr %3, ptr %13, align 8, !tbaa !151
  store ptr %4, ptr %14, align 8, !tbaa !151
  store ptr %5, ptr %15, align 8, !tbaa !149
  store ptr %6, ptr %16, align 8, !tbaa !151
  store ptr %7, ptr %17, align 8, !tbaa !151
  %20 = load ptr, ptr %10, align 8
  %21 = load ptr, ptr %12, align 8, !tbaa !149
  %22 = load i64, ptr %21, align 8, !tbaa !152
  %23 = add nsw i64 %22, 12
  %24 = getelementptr inbounds nuw %class.checked_buffer_t, ptr %20, i32 0, i32 2
  %25 = load i32, ptr %24, align 8, !tbaa !185
  %26 = sext i32 %25 to i64
  %27 = icmp sgt i64 %23, %26
  br i1 %27, label %32, label %28

28:                                               ; preds = %8
  %29 = load ptr, ptr %12, align 8, !tbaa !149
  %30 = load i64, ptr %29, align 8, !tbaa !152
  %31 = icmp slt i64 %30, 0
  br i1 %31, label %32, label %33

32:                                               ; preds = %28, %8
  store i32 -1, ptr %9, align 4
  br label %93

33:                                               ; preds = %28
  call void @llvm.lifetime.start.p0(i64 4, ptr %18) #18
  %34 = load ptr, ptr %12, align 8, !tbaa !149
  %35 = load i64, ptr %34, align 8, !tbaa !152
  %36 = trunc i64 %35 to i32
  store i32 %36, ptr %18, align 4, !tbaa !12
  %37 = load i32, ptr %18, align 4, !tbaa !12
  %38 = call noundef zeroext i16 @_ZN16checked_buffer_t5sget2Ei(ptr noundef nonnull align 8 dereferenceable(48) %20, i32 noundef %37)
  %39 = zext i16 %38 to i32
  %40 = load ptr, ptr %13, align 8, !tbaa !151
  store i32 %39, ptr %40, align 4, !tbaa !12
  %41 = load i32, ptr %18, align 4, !tbaa !12
  %42 = add nsw i32 %41, 2
  store i32 %42, ptr %18, align 4, !tbaa !12
  %43 = load i32, ptr %18, align 4, !tbaa !12
  %44 = call noundef zeroext i16 @_ZN16checked_buffer_t5sget2Ei(ptr noundef nonnull align 8 dereferenceable(48) %20, i32 noundef %43)
  %45 = zext i16 %44 to i32
  %46 = load ptr, ptr %14, align 8, !tbaa !151
  store i32 %45, ptr %46, align 4, !tbaa !12
  %47 = load i32, ptr %18, align 4, !tbaa !12
  %48 = add nsw i32 %47, 2
  store i32 %48, ptr %18, align 4, !tbaa !12
  %49 = load i32, ptr %18, align 4, !tbaa !12
  %50 = call noundef i32 @_ZN16checked_buffer_t5sget4Ei(ptr noundef nonnull align 8 dereferenceable(48) %20, i32 noundef %49)
  %51 = load ptr, ptr %16, align 8, !tbaa !151
  store i32 %50, ptr %51, align 4, !tbaa !12
  %52 = load i32, ptr %18, align 4, !tbaa !12
  %53 = add nsw i32 %52, 4
  store i32 %53, ptr %18, align 4, !tbaa !12
  %54 = load ptr, ptr %14, align 8, !tbaa !151
  %55 = load i32, ptr %54, align 4, !tbaa !12
  %56 = call noundef i32 @_Z29libraw_tagtype_dataunit_bytesi(i32 noundef %55)
  %57 = load ptr, ptr %17, align 8, !tbaa !151
  store i32 %56, ptr %57, align 4, !tbaa !12
  %58 = load ptr, ptr %16, align 8, !tbaa !151
  %59 = load i32, ptr %58, align 4, !tbaa !12
  %60 = load ptr, ptr %17, align 8, !tbaa !151
  %61 = load i32, ptr %60, align 4, !tbaa !12
  %62 = mul i32 %59, %61
  %63 = icmp ugt i32 %62, 4
  br i1 %63, label %64, label %83

64:                                               ; preds = %33
  %65 = load i32, ptr %18, align 4, !tbaa !12
  %66 = call noundef i32 @_ZN16checked_buffer_t5sget4Ei(ptr noundef nonnull align 8 dereferenceable(48) %20, i32 noundef %65)
  %67 = load i32, ptr %11, align 4, !tbaa !12
  %68 = sub i32 %66, %67
  %69 = zext i32 %68 to i64
  %70 = load ptr, ptr %15, align 8, !tbaa !149
  store i64 %69, ptr %70, align 8, !tbaa !152
  %71 = load ptr, ptr %15, align 8, !tbaa !149
  %72 = load i64, ptr %71, align 8, !tbaa !152
  %73 = load ptr, ptr %16, align 8, !tbaa !151
  %74 = load i32, ptr %73, align 4, !tbaa !12
  %75 = zext i32 %74 to i64
  %76 = add nsw i64 %72, %75
  %77 = getelementptr inbounds nuw %class.checked_buffer_t, ptr %20, i32 0, i32 2
  %78 = load i32, ptr %77, align 8, !tbaa !185
  %79 = sext i32 %78 to i64
  %80 = icmp sgt i64 %76, %79
  br i1 %80, label %81, label %82

81:                                               ; preds = %64
  store i32 -2, ptr %9, align 4
  store i32 1, ptr %19, align 4
  br label %92

82:                                               ; preds = %64
  br label %88

83:                                               ; preds = %33
  %84 = load ptr, ptr %12, align 8, !tbaa !149
  %85 = load i64, ptr %84, align 8, !tbaa !152
  %86 = add nsw i64 %85, 8
  %87 = load ptr, ptr %15, align 8, !tbaa !149
  store i64 %86, ptr %87, align 8, !tbaa !152
  br label %88

88:                                               ; preds = %83, %82
  %89 = load ptr, ptr %12, align 8, !tbaa !149
  %90 = load i64, ptr %89, align 8, !tbaa !152
  %91 = add nsw i64 %90, 12
  store i64 %91, ptr %89, align 8, !tbaa !152
  store i32 0, ptr %9, align 4
  store i32 1, ptr %19, align 4
  br label %92

92:                                               ; preds = %88, %81
  call void @llvm.lifetime.end.p0(i64 4, ptr %18) #18
  br label %93

93:                                               ; preds = %92, %32
  %94 = load i32, ptr %9, align 4
  ret i32 %94
}