; Function Attrs: mustprogress uwtable
define noundef range(i32 -2, 1) i32 @_ZN16checked_buffer_t9tiff_sgetEjPxPjS1_S0_S1_Pi(ptr noundef nonnull readonly align 8 captures(none) dereferenceable(48) %0, i32 noundef %1, ptr noundef captures(none) %2, ptr noundef writeonly captures(none) %3, ptr noundef captures(none) %4, ptr noundef writeonly captures(none) %5, ptr noundef captures(none) %6, ptr noundef writeonly captures(none) %7) local_unnamed_addr #4 align 2 {
  %9 = load i64, ptr %2, align 8, !tbaa !140
  %10 = add nsw i64 %9, 12
  %11 = getelementptr inbounds nuw i8, ptr %0, i64 16
  %12 = load i32, ptr %11, align 8, !tbaa !170
  %13 = sext i32 %12 to i64
  %14 = icmp sgt i64 %10, %13
  %15 = icmp slt i64 %9, 0
  %or.cond = or i1 %15, %14
  br i1 %or.cond, label %86, label %16

16:                                               ; preds = %8
  %17 = trunc i64 %9 to i32
  %18 = icmp sle i32 %12, %17
  %19 = icmp slt i32 %17, 0
  %or.cond.i.i = or i1 %19, %18
  br i1 %or.cond.i.i, label %20, label %_ZN16checked_buffer_t11checkoffsetEi.exit.i

20:                                               ; preds = %16
  %21 = tail call ptr @__cxa_allocate_exception(i64 4) #30
  store i32 4, ptr %21, align 16, !tbaa !20
  tail call void @__cxa_throw(ptr nonnull %21, ptr nonnull @_ZTI17LibRaw_exceptions, ptr null) #31
  unreachable

_ZN16checked_buffer_t11checkoffsetEi.exit.i:      ; preds = %16
  %22 = add nuw nsw i32 %17, 2
  %.not.i = icmp slt i32 %22, %12
  br i1 %.not.i, label %_ZN16checked_buffer_t5sget2Ei.exit, label %23

23:                                               ; preds = %_ZN16checked_buffer_t11checkoffsetEi.exit.i
  %24 = tail call ptr @__cxa_allocate_exception(i64 4) #30
  store i32 4, ptr %24, align 16, !tbaa !20
  tail call void @__cxa_throw(ptr nonnull %24, ptr nonnull @_ZTI17LibRaw_exceptions, ptr null) #31
  unreachable

_ZN16checked_buffer_t5sget2Ei.exit:               ; preds = %_ZN16checked_buffer_t11checkoffsetEi.exit.i
  %25 = load i16, ptr %0, align 8, !tbaa !160
  %26 = getelementptr inbounds nuw i8, ptr %0, i64 8
  %27 = load ptr, ptr %26, align 8, !tbaa !169
  %28 = and i64 %9, 2147483647
  %29 = getelementptr inbounds nuw i8, ptr %27, i64 %28
  %30 = tail call noundef zeroext i16 @_Z19libraw_sget2_staticsPh(i16 noundef signext %25, ptr noundef %29)
  %31 = zext i16 %30 to i32
  store i32 %31, ptr %3, align 4, !tbaa !122
  %32 = load i32, ptr %11, align 8, !tbaa !170
  %.not = icmp slt i32 %22, %32
  br i1 %.not, label %_ZN16checked_buffer_t11checkoffsetEi.exit.i27, label %33

33:                                               ; preds = %_ZN16checked_buffer_t5sget2Ei.exit
  %34 = tail call ptr @__cxa_allocate_exception(i64 4) #30
  store i32 4, ptr %34, align 16, !tbaa !20
  tail call void @__cxa_throw(ptr nonnull %34, ptr nonnull @_ZTI17LibRaw_exceptions, ptr null) #31
  unreachable

_ZN16checked_buffer_t11checkoffsetEi.exit.i27:    ; preds = %_ZN16checked_buffer_t5sget2Ei.exit
  %35 = add nuw nsw i32 %17, 4
  %.not.i28 = icmp samesign ult i32 %35, %32
  br i1 %.not.i28, label %_ZN16checked_buffer_t5sget2Ei.exit29, label %36

36:                                               ; preds = %_ZN16checked_buffer_t11checkoffsetEi.exit.i27
  %37 = tail call ptr @__cxa_allocate_exception(i64 4) #30
  store i32 4, ptr %37, align 16, !tbaa !20
  tail call void @__cxa_throw(ptr nonnull %37, ptr nonnull @_ZTI17LibRaw_exceptions, ptr null) #31
  unreachable

_ZN16checked_buffer_t5sget2Ei.exit29:             ; preds = %_ZN16checked_buffer_t11checkoffsetEi.exit.i27
  %38 = load i16, ptr %0, align 8, !tbaa !160
  %39 = load ptr, ptr %26, align 8, !tbaa !169
  %40 = zext nneg i32 %22 to i64
  %41 = getelementptr inbounds nuw i8, ptr %39, i64 %40
  %42 = tail call noundef zeroext i16 @_Z19libraw_sget2_staticsPh(i16 noundef signext %38, ptr noundef nonnull %41)
  %43 = zext i16 %42 to i32
  store i32 %43, ptr %4, align 4, !tbaa !122
  %44 = load i32, ptr %11, align 8, !tbaa !170
  %.not37 = icmp slt i32 %35, %44
  br i1 %.not37, label %_ZN16checked_buffer_t11checkoffsetEi.exit.i31, label %45

45:                                               ; preds = %_ZN16checked_buffer_t5sget2Ei.exit29
  %46 = tail call ptr @__cxa_allocate_exception(i64 4) #30
  store i32 4, ptr %46, align 16, !tbaa !20
  tail call void @__cxa_throw(ptr nonnull %46, ptr nonnull @_ZTI17LibRaw_exceptions, ptr null) #31
  unreachable

_ZN16checked_buffer_t11checkoffsetEi.exit.i31:    ; preds = %_ZN16checked_buffer_t5sget2Ei.exit29
  %47 = add nuw nsw i32 %17, 8
  %.not.i32 = icmp samesign ult i32 %47, %44
  br i1 %.not.i32, label %_ZN16checked_buffer_t5sget4Ei.exit, label %48

48:                                               ; preds = %_ZN16checked_buffer_t11checkoffsetEi.exit.i31
  %49 = tail call ptr @__cxa_allocate_exception(i64 4) #30
  store i32 4, ptr %49, align 16, !tbaa !20
  tail call void @__cxa_throw(ptr nonnull %49, ptr nonnull @_ZTI17LibRaw_exceptions, ptr null) #31
  unreachable

_ZN16checked_buffer_t5sget4Ei.exit:               ; preds = %_ZN16checked_buffer_t11checkoffsetEi.exit.i31
  %50 = load i16, ptr %0, align 8, !tbaa !160
  %51 = load ptr, ptr %26, align 8, !tbaa !169
  %52 = zext nneg i32 %35 to i64
  %53 = getelementptr inbounds nuw i8, ptr %51, i64 %52
  %54 = tail call noundef i32 @_Z19libraw_sget4_staticsPh(i16 noundef signext %50, ptr noundef nonnull %53)
  store i32 %54, ptr %6, align 4, !tbaa !122
  %55 = load i32, ptr %4, align 4, !tbaa !122
  %56 = tail call noundef i32 @_Z29libraw_tagtype_dataunit_bytesi(i32 noundef %55)
  store i32 %56, ptr %7, align 4, !tbaa !122
  %57 = load i32, ptr %6, align 4, !tbaa !122
  %58 = mul i32 %57, %56
  %59 = icmp ugt i32 %58, 4
  br i1 %59, label %60, label %80

60:                                               ; preds = %_ZN16checked_buffer_t5sget4Ei.exit
  %61 = load i32, ptr %11, align 8, !tbaa !170
  %.not38 = icmp slt i32 %47, %61
  br i1 %.not38, label %_ZN16checked_buffer_t11checkoffsetEi.exit.i34, label %62

62:                                               ; preds = %60
  %63 = tail call ptr @__cxa_allocate_exception(i64 4) #30
  store i32 4, ptr %63, align 16, !tbaa !20
  tail call void @__cxa_throw(ptr nonnull %63, ptr nonnull @_ZTI17LibRaw_exceptions, ptr null) #31
  unreachable

_ZN16checked_buffer_t11checkoffsetEi.exit.i34:    ; preds = %60
  %64 = add nuw nsw i32 %17, 12
  %.not.i35 = icmp samesign ult i32 %64, %61
  br i1 %.not.i35, label %_ZN16checked_buffer_t5sget4Ei.exit36, label %65

65:                                               ; preds = %_ZN16checked_buffer_t11checkoffsetEi.exit.i34
  %66 = tail call ptr @__cxa_allocate_exception(i64 4) #30
  store i32 4, ptr %66, align 16, !tbaa !20
  tail call void @__cxa_throw(ptr nonnull %66, ptr nonnull @_ZTI17LibRaw_exceptions, ptr null) #31
  unreachable

_ZN16checked_buffer_t5sget4Ei.exit36:             ; preds = %_ZN16checked_buffer_t11checkoffsetEi.exit.i34
  %67 = load i16, ptr %0, align 8, !tbaa !160
  %68 = load ptr, ptr %26, align 8, !tbaa !169
  %69 = zext nneg i32 %47 to i64
  %70 = getelementptr inbounds nuw i8, ptr %68, i64 %69
  %71 = tail call noundef i32 @_Z19libraw_sget4_staticsPh(i16 noundef signext %67, ptr noundef nonnull %70)
  %72 = sub i32 %71, %1
  %73 = zext i32 %72 to i64
  store i64 %73, ptr %5, align 8, !tbaa !140
  %74 = load i32, ptr %6, align 4, !tbaa !122
  %75 = zext i32 %74 to i64
  %76 = add nuw nsw i64 %75, %73
  %77 = load i32, ptr %11, align 8, !tbaa !170
  %78 = sext i32 %77 to i64
  %79 = icmp sgt i64 %76, %78
  br i1 %79, label %86, label %83

80:                                               ; preds = %_ZN16checked_buffer_t5sget4Ei.exit
  %81 = load i64, ptr %2, align 8, !tbaa !140
  %82 = add nsw i64 %81, 8
  store i64 %82, ptr %5, align 8, !tbaa !140
  br label %83

83:                                               ; preds = %_ZN16checked_buffer_t5sget4Ei.exit36, %80
  %84 = load i64, ptr %2, align 8, !tbaa !140
  %85 = add nsw i64 %84, 12
  store i64 %85, ptr %2, align 8, !tbaa !140
  br label %86

86:                                               ; preds = %83, %_ZN16checked_buffer_t5sget4Ei.exit36, %8
  %.0 = phi i32 [ -1, %8 ], [ 0, %83 ], [ -2, %_ZN16checked_buffer_t5sget4Ei.exit36 ]
  ret i32 %.0
}